; Function Attrs: mustprogress nounwind uwtable
define hidden void @_ZN7Compile19shuffle_macro_nodesEv(ptr nocapture noundef nonnull readonly align 8 dereferenceable(2316) %0) local_unnamed_addr #0 align 2 {
  %2 = getelementptr inbounds i8, ptr %0, i64 416
  %3 = load i32, ptr %2, align 8
  %4 = icmp slt i32 %3, 2
  br i1 %4, label %.loopexit, label %.lr.ph

.lr.ph:                                           ; preds = %1
  %.05 = add nsw i32 %3, -1
  %5 = getelementptr inbounds i8, ptr %0, i64 8
  %6 = getelementptr inbounds i8, ptr %0, i64 424
  br label %7

7:                                                ; preds = %.lr.ph, %7
  %.08 = phi i32 [ %.05, %.lr.ph ], [ %.0, %7 ]
  %.0.in7 = phi i32 [ %3, %.lr.ph ], [ %.08, %7 ]
  %8 = load ptr, ptr %5, align 8
  %9 = getelementptr inbounds i8, ptr %8, i64 288
  %10 = load i32, ptr %9, align 8
  %11 = tail call noundef i32 @_ZN2os11next_randomEj(i32 noundef %10) #17
  store i32 %11, ptr %9, align 8
  %12 = urem i32 %11, %.0.in7
  %13 = load ptr, ptr %6, align 8
  %14 = sext i32 %.08 to i64
  %15 = getelementptr inbounds ptr, ptr %13, i64 %14
  %16 = sext i32 %12 to i64
  %17 = getelementptr inbounds ptr, ptr %13, i64 %16
  %18 = load ptr, ptr %15, align 8
  %19 = load ptr, ptr %17, align 8
  store ptr %19, ptr %15, align 8
  store ptr %18, ptr %17, align 8
  %.0 = add i32 %.08, -1
  %.not = icmp eq i32 %.0, 0
  br i1 %.not, label %.loopexit, label %7, !llvm.loop !102

.loopexit:                                        ; preds = %7, %1
  ret void
}